target datalayout = "e-m:e-p270:32:32-p271:32:32-p272:64:64-i64:64-i128:128-f80:128-n8:16:32:64-S128"
target triple = "x86_64-pc-linux-gnu"

%"class.cv::MatOp" = type { ptr }
%"class.cv::MatOp_AddEx" = type { %"class.cv::MatOp" }
%"class.cv::MatOp_T" = type { %"class.cv::MatOp" }
%"class.cv::MatExpr" = type { ptr, i32, %"class.cv::Mat", %"class.cv::Mat", %"class.cv::Mat", double, double, %"class.cv::Scalar_" }
%"class.cv::Mat" = type { i32, i32, i32, i32, ptr, ptr, ptr, ptr, ptr, ptr, %"struct.cv::MatSize", %"struct.cv::MatStep" }
%"struct.cv::MatSize" = type { ptr }
%"struct.cv::MatStep" = type { ptr, [2 x i64] }
%"class.cv::Scalar_" = type { %"class.cv::Vec" }
%"class.cv::Vec" = type { %"class.cv::Matx" }
%"class.cv::Matx" = type { [4 x double] }

@_ZN2cvL13g_MatOp_AddExE = internal global %"class.cv::MatOp_AddEx" zeroinitializer, align 8
@_ZN2cvL9g_MatOp_TE = internal global %"class.cv::MatOp_T" zeroinitializer, align 8

; Function Attrs: mustprogress nounwind uwtable
define linkonce_odr hidden void @_ZN2cv4MatxIdLi4ELi1EEC2Ev(ptr noundef nonnull align 8 dereferenceable(32) %0) unnamed_addr #4 comdat align 2 {
  %2 = alloca ptr, align 8
  %3 = alloca i32, align 4
  store ptr %0, ptr %2, align 8
  %4 = load ptr, ptr %2, align 8
  store i32 0, ptr %3, align 4
  br label %5

5:                                                ; preds = %13, %1
  %6 = load i32, ptr %3, align 4
  %7 = icmp slt i32 %6, 4
  br i1 %7, label %8, label %16

8:                                                ; preds = %5
  %9 = getelementptr inbounds %"class.cv::Matx", ptr %4, i32 0, i32 0
  %10 = load i32, ptr %3, align 4
  %11 = sext i32 %10 to i64
  %12 = getelementptr inbounds [4 x double], ptr %9, i64 0, i64 %11
  store double 0.000000e+00, ptr %12, align 8
  br label %13

13:                                               ; preds = %8
  %14 = load i32, ptr %3, align 4
  %15 = add nsw i32 %14, 1
  store i32 %15, ptr %3, align 4
  br label %5, !llvm.loop !7

16:                                               ; preds = %5
  ret void
}

; Function Attrs: mustprogress uwtable
define linkonce_odr hidden void @_ZN2cv3VecIdLi4EEC2Ev(ptr noundef nonnull align 8 dereferenceable(32) %0) unnamed_addr #6 comdat align 2 {
  %2 = alloca ptr, align 8
  store ptr %0, ptr %2, align 8
  %3 = load ptr, ptr %2, align 8
  call void @_ZN2cv4MatxIdLi4ELi1EEC2Ev(ptr noundef nonnull align 8 dereferenceable(32) %3)
  ret void
}

; Function Attrs: mustprogress nounwind uwtable
define internal noundef zeroext i1 @_ZN2cveqIdEEbRKNS_7Scalar_IT_EES5_(ptr noundef nonnull align 8 dereferenceable(32) %0, ptr noundef nonnull align 8 dereferenceable(32) %1) #4 {
  %3 = alloca ptr, align 8
  %4 = alloca ptr, align 8
  store ptr %0, ptr %3, align 8
  store ptr %1, ptr %4, align 8
  %5 = load ptr, ptr %3, align 8
  %6 = getelementptr inbounds %"class.cv::Matx", ptr %5, i32 0, i32 0
  %7 = getelementptr inbounds [4 x double], ptr %6, i64 0, i64 0
  %8 = load double, ptr %7, align 8
  %9 = load ptr, ptr %4, align 8
  %10 = getelementptr inbounds %"class.cv::Matx", ptr %9, i32 0, i32 0
  %11 = getelementptr inbounds [4 x double], ptr %10, i64 0, i64 0
  %12 = load double, ptr %11, align 8
  %13 = fcmp oeq double %8, %12
  br i1 %13, label %14, label %44

14:                                               ; preds = %2
  %15 = load ptr, ptr %3, align 8
  %16 = getelementptr inbounds %"class.cv::Matx", ptr %15, i32 0, i32 0
  %17 = getelementptr inbounds [4 x double], ptr %16, i64 0, i64 1
  %18 = load double, ptr %17, align 8
  %19 = load ptr, ptr %4, align 8
  %20 = getelementptr inbounds %"class.cv::Matx", ptr %19, i32 0, i32 0
  %21 = getelementptr inbounds [4 x double], ptr %20, i64 0, i64 1
  %22 = load double, ptr %21, align 8
  %23 = fcmp oeq double %18, %22
  br i1 %23, label %24, label %44

24:                                               ; preds = %14
  %25 = load ptr, ptr %3, align 8
  %26 = getelementptr inbounds %"class.cv::Matx", ptr %25, i32 0, i32 0
  %27 = getelementptr inbounds [4 x double], ptr %26, i64 0, i64 2
  %28 = load double, ptr %27, align 8
  %29 = load ptr, ptr %4, align 8
  %30 = getelementptr inbounds %"class.cv::Matx", ptr %29, i32 0, i32 0
  %31 = getelementptr inbounds [4 x double], ptr %30, i64 0, i64 2
  %32 = load double, ptr %31, align 8
  %33 = fcmp oeq double %28, %32
  br i1 %33, label %34, label %44

34:                                               ; preds = %24
  %35 = load ptr, ptr %3, align 8
  %36 = getelementptr inbounds %"class.cv::Matx", ptr %35, i32 0, i32 0
  %37 = getelementptr inbounds [4 x double], ptr %36, i64 0, i64 3
  %38 = load double, ptr %37, align 8
  %39 = load ptr, ptr %4, align 8
  %40 = getelementptr inbounds %"class.cv::Matx", ptr %39, i32 0, i32 0
  %41 = getelementptr inbounds [4 x double], ptr %40, i64 0, i64 3
  %42 = load double, ptr %41, align 8
  %43 = fcmp oeq double %38, %42
  br label %44

44:                                               ; preds = %34, %24, %14, %2
  %45 = phi i1 [ false, %24 ], [ false, %14 ], [ false, %2 ], [ %43, %34 ]
  ret i1 %45
}

; Function Attrs: mustprogress uwtable
define linkonce_odr hidden void @_ZN2cv7Scalar_IdEC2Ev(ptr noundef nonnull align 8 dereferenceable(32) %0) unnamed_addr #6 comdat align 2 {
  %2 = alloca ptr, align 8
  store ptr %0, ptr %2, align 8
  %3 = load ptr, ptr %2, align 8
  call void @_ZN2cv3VecIdLi4EEC2Ev(ptr noundef nonnull align 8 dereferenceable(32) %3)
  %4 = getelementptr inbounds %"class.cv::Matx", ptr %3, i32 0, i32 0
  %5 = getelementptr inbounds [4 x double], ptr %4, i64 0, i64 3
  store double 0.000000e+00, ptr %5, align 8
  %6 = getelementptr inbounds %"class.cv::Matx", ptr %3, i32 0, i32 0
  %7 = getelementptr inbounds [4 x double], ptr %6, i64 0, i64 2
  store double 0.000000e+00, ptr %7, align 8
  %8 = getelementptr inbounds %"class.cv::Matx", ptr %3, i32 0, i32 0
  %9 = getelementptr inbounds [4 x double], ptr %8, i64 0, i64 1
  store double 0.000000e+00, ptr %9, align 8
  %10 = getelementptr inbounds %"class.cv::Matx", ptr %3, i32 0, i32 0
  %11 = getelementptr inbounds [4 x double], ptr %10, i64 0, i64 0
  store double 0.000000e+00, ptr %11, align 8
  ret void
}

; Function Attrs: mustprogress nounwind uwtable
define internal noundef zeroext i1 @_ZN2cvL7isAddExERKNS_7MatExprE(ptr noundef nonnull align 8 dereferenceable(352) %0) #4 {
  %2 = alloca ptr, align 8
  store ptr %0, ptr %2, align 8
  %3 = load ptr, ptr %2, align 8
  %4 = getelementptr inbounds %"class.cv::MatExpr", ptr %3, i32 0, i32 0
  %5 = load ptr, ptr %4, align 8
  %6 = icmp eq ptr %5, @_ZN2cvL13g_MatOp_AddExE
  ret i1 %6
}

; Function Attrs: mustprogress uwtable
define internal noundef zeroext i1 @_ZN2cvL8isScaledERKNS_7MatExprE(ptr noundef nonnull align 8 dereferenceable(352) %0) #6 {
  %2 = alloca ptr, align 8
  %3 = alloca %"class.cv::Scalar_", align 8
  store ptr %0, ptr %2, align 8
  %4 = load ptr, ptr %2, align 8
  %5 = call noundef zeroext i1 @_ZN2cvL7isAddExERKNS_7MatExprE(ptr noundef nonnull align 8 dereferenceable(352) %4)
  br i1 %5, label %6, label %21

6:                                                ; preds = %1
  %7 = load ptr, ptr %2, align 8
  %8 = getelementptr inbounds %"class.cv::MatExpr", ptr %7, i32 0, i32 3
  %9 = getelementptr inbounds %"class.cv::Mat", ptr %8, i32 0, i32 4
  %10 = load ptr, ptr %9, align 8
  %11 = icmp ne ptr %10, null
  br i1 %11, label %12, label %17

12:                                               ; preds = %6
  %13 = load ptr, ptr %2, align 8
  %14 = getelementptr inbounds %"class.cv::MatExpr", ptr %13, i32 0, i32 6
  %15 = load double, ptr %14, align 8
  %16 = fcmp oeq double %15, 0.000000e+00
  br i1 %16, label %17, label %21

17:                                               ; preds = %12, %6
  %18 = load ptr, ptr %2, align 8
  %19 = getelementptr inbounds %"class.cv::MatExpr", ptr %18, i32 0, i32 7
  call void @_ZN2cv7Scalar_IdEC2Ev(ptr noundef nonnull align 8 dereferenceable(32) %3)
  %20 = call noundef zeroext i1 @_ZN2cveqIdEEbRKNS_7Scalar_IT_EES5_(ptr noundef nonnull align 8 dereferenceable(32) %19, ptr noundef nonnull align 8 dereferenceable(32) %3)
  br label %21

21:                                               ; preds = %17, %12, %1
  %22 = phi i1 [ false, %12 ], [ false, %1 ], [ %20, %17 ]
  ret i1 %22
}

; Function Attrs: mustprogress nounwind uwtable
define internal noundef zeroext i1 @_ZN2cvL3isTERKNS_7MatExprE(ptr noundef nonnull align 8 dereferenceable(352) %0) #4 {
  %2 = alloca ptr, align 8
  store ptr %0, ptr %2, align 8
  %3 = load ptr, ptr %2, align 8
  %4 = getelementptr inbounds %"class.cv::MatExpr", ptr %3, i32 0, i32 0
  %5 = load ptr, ptr %4, align 8
  %6 = icmp eq ptr %5, @_ZN2cvL9g_MatOp_TE
  ret i1 %6
}

; Function Attrs: mustprogress uwtable
define void @_ZNK2cv5MatOp6matmulERKNS_7MatExprES3_RS1_(ptr noundef nonnull align 8 dereferenceable(8) %0, ptr noundef nonnull align 8 dereferenceable(352) %1, ptr noundef nonnull align 8 dereferenceable(352) %2, ptr noundef nonnull align 8 dereferenceable(352) %3) unnamed_addr #6 align 2 personality ptr @__gxx_personality_v0 {
  %5 = alloca ptr, align 8
  %6 = alloca ptr, align 8
  %7 = alloca ptr, align 8
  %8 = alloca ptr, align 8
  %9 = alloca double, align 8
  %10 = alloca i32, align 4
  %11 = alloca %"class.cv::Mat", align 8
  %12 = alloca %"class.cv::Mat", align 8
  %13 = alloca ptr, align 8
  %14 = alloca i32, align 4
  %15 = alloca %"class.cv::Mat", align 8
  store ptr %0, ptr %5, align 8
  store ptr %1, ptr %6, align 8
  store ptr %2, ptr %7, align 8
  store ptr %3, ptr %8, align 8
  %16 = load ptr, ptr %5, align 8
  %17 = load ptr, ptr %7, align 8
  %18 = getelementptr inbounds %"class.cv::MatExpr", ptr %17, i32 0, i32 0
  %19 = load ptr, ptr %18, align 8
  %20 = icmp eq ptr %16, %19
  br i1 %20, label %21, label %109

21:                                               ; preds = %4
  store double 1.000000e+00, ptr %9, align 8
  store i32 0, ptr %10, align 4
  call void @_ZN2cv3MatC1Ev(ptr noundef nonnull align 8 dereferenceable(96) %11) #3
  call void @_ZN2cv3MatC1Ev(ptr noundef nonnull align 8 dereferenceable(96) %12) #3
  %22 = load ptr, ptr %6, align 8
  %23 = invoke noundef zeroext i1 @_ZN2cvL3isTERKNS_7MatExprE(ptr noundef nonnull align 8 dereferenceable(352) %22)
          to label %24 unwind label %33

24:                                               ; preds = %21
  br i1 %23, label %25, label %37

25:                                               ; preds = %24
  store i32 1, ptr %10, align 4
  %26 = load ptr, ptr %6, align 8
  %27 = getelementptr inbounds %"class.cv::MatExpr", ptr %26, i32 0, i32 5
  %28 = load double, ptr %27, align 8
  store double %28, ptr %9, align 8
  %29 = load ptr, ptr %6, align 8
  %30 = getelementptr inbounds %"class.cv::MatExpr", ptr %29, i32 0, i32 2
  %31 = invoke noundef nonnull align 8 dereferenceable(96) ptr @_ZN2cv3MataSERKS0_(ptr noundef nonnull align 8 dereferenceable(96) %11, ptr noundef nonnull align 8 dereferenceable(96) %30)
          to label %32 unwind label %33

32:                                               ; preds = %25
  br label %59

33:                                               ; preds = %89, %79, %75, %63, %59, %49, %41, %37, %25, %21
  %34 = landingpad { ptr, i32 }
          cleanup
  %35 = extractvalue { ptr, i32 } %34, 0
  store ptr %35, ptr %13, align 8
  %36 = extractvalue { ptr, i32 } %34, 1
  store i32 %36, ptr %14, align 4
  br label %108

37:                                               ; preds = %24
  %38 = load ptr, ptr %6, align 8
  %39 = invoke noundef zeroext i1 @_ZN2cvL8isScaledERKNS_7MatExprE(ptr noundef nonnull align 8 dereferenceable(352) %38)
          to label %40 unwind label %33

40:                                               ; preds = %37
  br i1 %39, label %41, label %49

41:                                               ; preds = %40
  %42 = load ptr, ptr %6, align 8
  %43 = getelementptr inbounds %"class.cv::MatExpr", ptr %42, i32 0, i32 5
  %44 = load double, ptr %43, align 8
  store double %44, ptr %9, align 8
  %45 = load ptr, ptr %6, align 8
  %46 = getelementptr inbounds %"class.cv::MatExpr", ptr %45, i32 0, i32 2
  %47 = invoke noundef nonnull align 8 dereferenceable(96) ptr @_ZN2cv3MataSERKS0_(ptr noundef nonnull align 8 dereferenceable(96) %11, ptr noundef nonnull align 8 dereferenceable(96) %46)
          to label %48 unwind label %33

48:                                               ; preds = %41
  br label %58

49:                                               ; preds = %40
  %50 = load ptr, ptr %6, align 8
  %51 = getelementptr inbounds %"class.cv::MatExpr", ptr %50, i32 0, i32 0
  %52 = load ptr, ptr %51, align 8
  %53 = load ptr, ptr %6, align 8
  %54 = load ptr, ptr %52, align 8
  %55 = getelementptr inbounds ptr, ptr %54, i64 3
  %56 = load ptr, ptr %55, align 8
  invoke void %56(ptr noundef nonnull align 8 dereferenceable(8) %52, ptr noundef nonnull align 8 dereferenceable(352) %53, ptr noundef nonnull align 8 dereferenceable(96) %11, i32 noundef -1)
          to label %57 unwind label %33

57:                                               ; preds = %49
  br label %58

58:                                               ; preds = %57, %48
  br label %59

59:                                               ; preds = %58, %32
  %60 = load ptr, ptr %7, align 8
  %61 = invoke noundef zeroext i1 @_ZN2cvL3isTERKNS_7MatExprE(ptr noundef nonnull align 8 dereferenceable(352) %60)
          to label %62 unwind label %33

62:                                               ; preds = %59
  br i1 %61, label %63, label %75

63:                                               ; preds = %62
  %64 = load i32, ptr %10, align 4
  %65 = or i32 %64, 2
  store i32 %65, ptr %10, align 4
  %66 = load ptr, ptr %7, align 8
  %67 = getelementptr inbounds %"class.cv::MatExpr", ptr %66, i32 0, i32 5
  %68 = load double, ptr %67, align 8
  %69 = load double, ptr %9, align 8
  %70 = fmul double %69, %68
  store double %70, ptr %9, align 8
  %71 = load ptr, ptr %7, align 8
  %72 = getelementptr inbounds %"class.cv::MatExpr", ptr %71, i32 0, i32 2
  %73 = invoke noundef nonnull align 8 dereferenceable(96) ptr @_ZN2cv3MataSERKS0_(ptr noundef nonnull align 8 dereferenceable(96) %12, ptr noundef nonnull align 8 dereferenceable(96) %72)
          to label %74 unwind label %33

74:                                               ; preds = %63
  br label %99

75:                                               ; preds = %62
  %76 = load ptr, ptr %7, align 8
  %77 = invoke noundef zeroext i1 @_ZN2cvL8isScaledERKNS_7MatExprE(ptr noundef nonnull align 8 dereferenceable(352) %76)
          to label %78 unwind label %33

78:                                               ; preds = %75
  br i1 %77, label %79, label %89

79:                                               ; preds = %78
  %80 = load ptr, ptr %7, align 8
  %81 = getelementptr inbounds %"class.cv::MatExpr", ptr %80, i32 0, i32 5
  %82 = load double, ptr %81, align 8
  %83 = load double, ptr %9, align 8
  %84 = fmul double %83, %82
  store double %84, ptr %9, align 8
  %85 = load ptr, ptr %7, align 8
  %86 = getelementptr inbounds %"class.cv::MatExpr", ptr %85, i32 0, i32 2
  %87 = invoke noundef nonnull align 8 dereferenceable(96) ptr @_ZN2cv3MataSERKS0_(ptr noundef nonnull align 8 dereferenceable(96) %12, ptr noundef nonnull align 8 dereferenceable(96) %86)
          to label %88 unwind label %33

88:                                               ; preds = %79
  br label %98

89:                                               ; preds = %78
  %90 = load ptr, ptr %7, align 8
  %91 = getelementptr inbounds %"class.cv::MatExpr", ptr %90, i32 0, i32 0
  %92 = load ptr, ptr %91, align 8
  %93 = load ptr, ptr %7, align 8
  %94 = load ptr, ptr %92, align 8
  %95 = getelementptr inbounds ptr, ptr %94, i64 3
  %96 = load ptr, ptr %95, align 8
  invoke void %96(ptr noundef nonnull align 8 dereferenceable(8) %92, ptr noundef nonnull align 8 dereferenceable(352) %93, ptr noundef nonnull align 8 dereferenceable(96) %12, i32 noundef -1)
          to label %97 unwind label %33

97:                                               ; preds = %89
  br label %98

98:                                               ; preds = %97, %88
  br label %99

99:                                               ; preds = %98, %74
  %100 = load ptr, ptr %8, align 8
  %101 = load i32, ptr %10, align 4
  %102 = load double, ptr %9, align 8
  call void @_ZN2cv3MatC1Ev(ptr noundef nonnull align 8 dereferenceable(96) %15) #3
  invoke void @_ZN2cv10MatOp_GEMM8makeExprERNS_7MatExprEiRKNS_3MatES5_dS5_d(ptr noundef nonnull align 8 dereferenceable(352) %100, i32 noundef %101, ptr noundef nonnull align 8 dereferenceable(96) %11, ptr noundef nonnull align 8 dereferenceable(96) %12, double noundef %102, ptr noundef nonnull align 8 dereferenceable(96) %15, double noundef 1.000000e+00)
          to label %103 unwind label %104

103:                                              ; preds = %99
  call void @_ZN2cv3MatD1Ev(ptr noundef nonnull align 8 dereferenceable(96) %15) #3
  call void @_ZN2cv3MatD1Ev(ptr noundef nonnull align 8 dereferenceable(96) %12) #3
  call void @_ZN2cv3MatD1Ev(ptr noundef nonnull align 8 dereferenceable(96) %11) #3
  br label %119

104:                                              ; preds = %99
  %105 = landingpad { ptr, i32 }
          cleanup
  %106 = extractvalue { ptr, i32 } %105, 0
  store ptr %106, ptr %13, align 8
  %107 = extractvalue { ptr, i32 } %105, 1
  store i32 %107, ptr %14, align 4
  call void @_ZN2cv3MatD1Ev(ptr noundef nonnull align 8 dereferenceable(96) %15) #3
  br label %108

108:                                              ; preds = %104, %33
  call void @_ZN2cv3MatD1Ev(ptr noundef nonnull align 8 dereferenceable(96) %12) #3
  call void @_ZN2cv3MatD1Ev(ptr noundef nonnull align 8 dereferenceable(96) %11) #3
  br label %120

109:                                              ; preds = %4
  %110 = load ptr, ptr %7, align 8
  %111 = getelementptr inbounds %"class.cv::MatExpr", ptr %110, i32 0, i32 0
  %112 = load ptr, ptr %111, align 8
  %113 = load ptr, ptr %6, align 8
  %114 = load ptr, ptr %7, align 8
  %115 = load ptr, ptr %8, align 8
  %116 = load ptr, ptr %112, align 8
  %117 = getelementptr inbounds ptr, ptr %116, i64 23
  %118 = load ptr, ptr %117, align 8
  call void %118(ptr noundef nonnull align 8 dereferenceable(8) %112, ptr noundef nonnull align 8 dereferenceable(352) %113, ptr noundef nonnull align 8 dereferenceable(352) %114, ptr noundef nonnull align 8 dereferenceable(352) %115)
  br label %119

119:                                              ; preds = %109, %103
  ret void

120:                                              ; preds = %108
  %121 = load ptr, ptr %13, align 8
  %122 = load i32, ptr %14, align 4
  %123 = insertvalue { ptr, i32 } poison, ptr %121, 0
  %124 = insertvalue { ptr, i32 } %123, i32 %122, 1
  resume { ptr, i32 } %124
}