; Function Attrs: mustprogress uwtable
define void @_ZNK2cv5MatOp6matmulERKNS_7MatExprES3_RS1_(ptr noundef nonnull readnone align 8 dereferenceable(8) %0, ptr noundef nonnull align 8 dereferenceable(352) %1, ptr noundef nonnull align 8 dereferenceable(352) %2, ptr noundef nonnull align 8 dereferenceable(352) %3) unnamed_addr #8 align 2 personality ptr @__gxx_personality_v0 {
  %5 = alloca %"class.cv::Mat", align 8
  %6 = alloca %"class.cv::Mat", align 8
  %7 = alloca %"class.cv::Mat", align 8
  %8 = load ptr, ptr %2, align 8
  %9 = icmp eq ptr %8, %0
  br i1 %9, label %10, label %78

10:                                               ; preds = %4
  call void @_ZN2cv3MatC1Ev(ptr noundef nonnull align 8 dereferenceable(96) %5) #21
  call void @_ZN2cv3MatC1Ev(ptr noundef nonnull align 8 dereferenceable(96) %6) #21
  %.val35 = load ptr, ptr %1, align 8
  %11 = icmp eq ptr %.val35, @_ZN2cvL9g_MatOp_TE
  br i1 %11, label %12, label %19

12:                                               ; preds = %10
  %13 = getelementptr inbounds i8, ptr %1, i64 304
  %14 = load double, ptr %13, align 8
  %15 = getelementptr inbounds i8, ptr %1, i64 16
  %16 = invoke noundef nonnull align 8 dereferenceable(96) ptr @_ZN2cv3MataSERKS0_(ptr noundef nonnull align 8 dereferenceable(96) %5, ptr noundef nonnull align 8 dereferenceable(96) %15)
          to label %41 unwind label %17

17:                                               ; preds = %_ZN2cvL8isScaledERKNS_7MatExprE.exit41.thread, %64, %43, %_ZN2cvL8isScaledERKNS_7MatExprE.exit.thread, %33, %12
  %18 = landingpad { ptr, i32 }
          cleanup
  br label %77

19:                                               ; preds = %10
  %20 = icmp eq ptr %.val35, @_ZN2cvL13g_MatOp_AddExE
  br i1 %20, label %21, label %_ZN2cvL8isScaledERKNS_7MatExprE.exit.thread

21:                                               ; preds = %19
  %22 = getelementptr inbounds i8, ptr %1, i64 128
  %23 = load ptr, ptr %22, align 8
  %.not.i = icmp eq ptr %23, null
  %24 = getelementptr inbounds i8, ptr %1, i64 312
  %25 = load double, ptr %24, align 8
  %26 = fcmp oeq double %25, 0.000000e+00
  %or.cond.i = select i1 %.not.i, i1 true, i1 %26
  br i1 %or.cond.i, label %27, label %_ZN2cvL8isScaledERKNS_7MatExprE.exit.thread

27:                                               ; preds = %21
  %28 = getelementptr inbounds i8, ptr %1, i64 320
  %29 = load <4 x double>, ptr %28, align 8
  %.fr = freeze <4 x double> %29
  %30 = fcmp une <4 x double> %.fr, zeroinitializer
  %31 = bitcast <4 x i1> %30 to i4
  %32 = icmp eq i4 %31, 0
  br i1 %32, label %33, label %_ZN2cvL8isScaledERKNS_7MatExprE.exit.thread

33:                                               ; preds = %27
  %34 = getelementptr inbounds i8, ptr %1, i64 304
  %35 = load double, ptr %34, align 8
  %36 = getelementptr inbounds i8, ptr %1, i64 16
  %37 = invoke noundef nonnull align 8 dereferenceable(96) ptr @_ZN2cv3MataSERKS0_(ptr noundef nonnull align 8 dereferenceable(96) %5, ptr noundef nonnull align 8 dereferenceable(96) %36)
          to label %41 unwind label %17

_ZN2cvL8isScaledERKNS_7MatExprE.exit.thread:      ; preds = %27, %21, %19
  %38 = load ptr, ptr %.val35, align 8
  %39 = getelementptr inbounds i8, ptr %38, i64 24
  %40 = load ptr, ptr %39, align 8
  invoke void %40(ptr noundef nonnull align 8 dereferenceable(8) %.val35, ptr noundef nonnull align 8 dereferenceable(352) %1, ptr noundef nonnull align 8 dereferenceable(96) %5, i32 noundef -1)
          to label %41 unwind label %17

41:                                               ; preds = %33, %_ZN2cvL8isScaledERKNS_7MatExprE.exit.thread, %12
  %.031 = phi double [ %14, %12 ], [ %35, %33 ], [ 1.000000e+00, %_ZN2cvL8isScaledERKNS_7MatExprE.exit.thread ]
  %.030 = phi i32 [ 1, %12 ], [ 0, %33 ], [ 0, %_ZN2cvL8isScaledERKNS_7MatExprE.exit.thread ]
  %.val = load ptr, ptr %2, align 8
  %42 = icmp eq ptr %.val, @_ZN2cvL9g_MatOp_TE
  br i1 %42, label %43, label %50

43:                                               ; preds = %41
  %44 = or disjoint i32 %.030, 2
  %45 = getelementptr inbounds i8, ptr %2, i64 304
  %46 = load double, ptr %45, align 8
  %47 = fmul double %.031, %46
  %48 = getelementptr inbounds i8, ptr %2, i64 16
  %49 = invoke noundef nonnull align 8 dereferenceable(96) ptr @_ZN2cv3MataSERKS0_(ptr noundef nonnull align 8 dereferenceable(96) %6, ptr noundef nonnull align 8 dereferenceable(96) %48)
          to label %73 unwind label %17

50:                                               ; preds = %41
  %51 = icmp eq ptr %.val, @_ZN2cvL13g_MatOp_AddExE
  br i1 %51, label %52, label %_ZN2cvL8isScaledERKNS_7MatExprE.exit41.thread

52:                                               ; preds = %50
  %53 = getelementptr inbounds i8, ptr %2, i64 128
  %54 = load ptr, ptr %53, align 8
  %.not.i37 = icmp eq ptr %54, null
  %55 = getelementptr inbounds i8, ptr %2, i64 312
  %56 = load double, ptr %55, align 8
  %57 = fcmp oeq double %56, 0.000000e+00
  %or.cond.i38 = select i1 %.not.i37, i1 true, i1 %57
  br i1 %or.cond.i38, label %58, label %_ZN2cvL8isScaledERKNS_7MatExprE.exit41.thread

58:                                               ; preds = %52
  %59 = getelementptr inbounds i8, ptr %2, i64 320
  %60 = load <4 x double>, ptr %59, align 8
  %.fr47 = freeze <4 x double> %60
  %61 = fcmp une <4 x double> %.fr47, zeroinitializer
  %62 = bitcast <4 x i1> %61 to i4
  %63 = icmp eq i4 %62, 0
  br i1 %63, label %64, label %_ZN2cvL8isScaledERKNS_7MatExprE.exit41.thread

64:                                               ; preds = %58
  %65 = getelementptr inbounds i8, ptr %2, i64 304
  %66 = load double, ptr %65, align 8
  %67 = fmul double %.031, %66
  %68 = getelementptr inbounds i8, ptr %2, i64 16
  %69 = invoke noundef nonnull align 8 dereferenceable(96) ptr @_ZN2cv3MataSERKS0_(ptr noundef nonnull align 8 dereferenceable(96) %6, ptr noundef nonnull align 8 dereferenceable(96) %68)
          to label %73 unwind label %17

_ZN2cvL8isScaledERKNS_7MatExprE.exit41.thread:    ; preds = %58, %52, %50
  %70 = load ptr, ptr %.val, align 8
  %71 = getelementptr inbounds i8, ptr %70, i64 24
  %72 = load ptr, ptr %71, align 8
  invoke void %72(ptr noundef nonnull align 8 dereferenceable(8) %.val, ptr noundef nonnull align 8 dereferenceable(352) %2, ptr noundef nonnull align 8 dereferenceable(96) %6, i32 noundef -1)
          to label %73 unwind label %17

73:                                               ; preds = %64, %_ZN2cvL8isScaledERKNS_7MatExprE.exit41.thread, %43
  %.132 = phi double [ %47, %43 ], [ %67, %64 ], [ %.031, %_ZN2cvL8isScaledERKNS_7MatExprE.exit41.thread ]
  %.1 = phi i32 [ %44, %43 ], [ %.030, %64 ], [ %.030, %_ZN2cvL8isScaledERKNS_7MatExprE.exit41.thread ]
  call void @_ZN2cv3MatC1Ev(ptr noundef nonnull align 8 dereferenceable(96) %7) #21
  invoke void @_ZN2cv10MatOp_GEMM8makeExprERNS_7MatExprEiRKNS_3MatES5_dS5_d(ptr noundef nonnull align 8 dereferenceable(352) %3, i32 noundef %.1, ptr noundef nonnull align 8 dereferenceable(96) %5, ptr noundef nonnull align 8 dereferenceable(96) %6, double noundef %.132, ptr noundef nonnull align 8 dereferenceable(96) %7, double noundef 1.000000e+00)
          to label %74 unwind label %75

74:                                               ; preds = %73
  call void @_ZN2cv3MatD1Ev(ptr noundef nonnull align 8 dereferenceable(96) %7) #21
  call void @_ZN2cv3MatD1Ev(ptr noundef nonnull align 8 dereferenceable(96) %6) #21
  call void @_ZN2cv3MatD1Ev(ptr noundef nonnull align 8 dereferenceable(96) %5) #21
  br label %82

75:                                               ; preds = %73
  %76 = landingpad { ptr, i32 }
          cleanup
  call void @_ZN2cv3MatD1Ev(ptr noundef nonnull align 8 dereferenceable(96) %7) #21
  br label %77

77:                                               ; preds = %75, %17
  %.pn = phi { ptr, i32 } [ %76, %75 ], [ %18, %17 ]
  call void @_ZN2cv3MatD1Ev(ptr noundef nonnull align 8 dereferenceable(96) %6) #21
  call void @_ZN2cv3MatD1Ev(ptr noundef nonnull align 8 dereferenceable(96) %5) #21
  resume { ptr, i32 } %.pn

78:                                               ; preds = %4
  %79 = load ptr, ptr %8, align 8
  %80 = getelementptr inbounds i8, ptr %79, i64 184
  %81 = load ptr, ptr %80, align 8
  tail call void %81(ptr noundef nonnull align 8 dereferenceable(8) %8, ptr noundef nonnull align 8 dereferenceable(352) %1, ptr noundef nonnull align 8 dereferenceable(352) %2, ptr noundef nonnull align 8 dereferenceable(352) %3)
  br label %82

82:                                               ; preds = %78, %74
  ret void
}